V#sidebar {\u000a  background-color: gray; }\u000a\u000a  #main-content, #single-panel {\u000a    background-color: #2a2a2a; }\u000a\u000a    #footer {\u000a      height: 60px;\u000a      background: #6cf; }\u000a
p1
.