V.row {\u000a  clear: both;\u000a  width: 100%; }\u000a\u000a  .col {\u000a    float: left;\u000a    background-color: lightgray;\u000a    height: 25%;\u000a    width: 25%; }\u000a\u000a    @media only screen and (max-width: 480px) {\u000a      .col {\u000a        width: 100%;   }\u000a}\u000a
p1
.